; Function Attrs: mustprogress uwtable
define internal void @_ZL11init_kwevalPK10gmx_mtop_tiP18gmx_ana_selparam_tPv(ptr noundef %0, i32 %1, ptr readnone captures(none) %2, ptr noundef readonly captures(none) %3) #0 {
  %5 = load ptr, ptr %3, align 8, !tbaa !823
  %6 = getelementptr inbounds nuw i8, ptr %5, i64 48
  %7 = load ptr, ptr %6, align 8, !tbaa !835
  %8 = getelementptr inbounds nuw i8, ptr %3, i64 8
  %9 = load ptr, ptr %8, align 8, !tbaa !830
  tail call void %7(ptr noundef %0, i32 noundef 0, ptr noundef null, ptr noundef %9)
  ret void
}